target datalayout = "e-m:e-p270:32:32-p271:32:32-p272:64:64-i64:64-i128:128-f80:128-n8:16:32:64-S128"
target triple = "x86_64-pc-linux-gnu"

%"struct.std::_Rb_tree_header" = type { %"struct.std::_Rb_tree_node_base", i64 }
%"struct.std::_Rb_tree_node_base" = type { i32, ptr, ptr, ptr }
%class.QString = type { ptr }
%"class.vcg::Point3.17" = type { [3 x float] }
%class.EditAlignPlugin = type { %class.QObject, %class.EditTool, %class.QFont, i32, ptr, %"class.vcg::Trackball", ptr, ptr, %"class.vcg::MeshTree", %"class.vcg::AlignPair::Param", %"class.vcg::MeshTree<MeshModel, float>::Param", ptr }
%class.QObject = type { ptr, %class.QScopedPointer }
%class.QScopedPointer = type { ptr }
%class.EditTool = type { %class.MeshLabPluginLogger }
%class.MeshLabPluginLogger = type { ptr, ptr }
%class.QFont = type <{ %class.QExplicitlySharedDataPointer, i32, [4 x i8] }>
%class.QExplicitlySharedDataPointer = type { ptr }
%"class.vcg::Trackball" = type <{ %"class.vcg::Transform", %"class.vcg::View", i32, ptr, ptr, ptr, %"class.std::map.18", %"class.vcg::Similarityf", %"class.vcg::Similarityf", %"class.vcg::Similarityf", %"class.vcg::Point3.17", [4 x i8], %"class.std::vector.26", i8, [3 x i8], i32, i32, %"class.vcg::Quaternion", i8, i8, [2 x i8], %"class.std::__cxx11::list", i32, i8, [3 x i8] }>
%"class.vcg::Transform" = type { %"class.vcg::Similarityf", %"class.vcg::Point3.17", float }
%"class.vcg::View" = type <{ %"class.vcg::Matrix44", %"class.vcg::Matrix44", %"class.vcg::Matrix44", %"class.vcg::Matrix44", [4 x i32], i8, [3 x i8] }>
%"class.vcg::Matrix44" = type { %"struct.std::array" }
%"struct.std::array" = type { [16 x float] }
%"class.std::map.18" = type { %"class.std::_Rb_tree.19" }
%"class.std::_Rb_tree.19" = type { %"struct.std::_Rb_tree<int, std::pair<const int, vcg::TrackMode *>, std::_Select1st<std::pair<const int, vcg::TrackMode *>>, std::less<int>>::_Rb_tree_impl" }
%"struct.std::_Rb_tree<int, std::pair<const int, vcg::TrackMode *>, std::_Select1st<std::pair<const int, vcg::TrackMode *>>, std::less<int>>::_Rb_tree_impl" = type { %"struct.std::_Rb_tree_key_compare.23", %"struct.std::_Rb_tree_header" }
%"struct.std::_Rb_tree_key_compare.23" = type { %"struct.std::less.24" }
%"struct.std::less.24" = type { i8 }
%"class.vcg::Similarityf" = type { %"class.vcg::Similarity" }
%"class.vcg::Similarity" = type { %"class.vcg::Quaternion", %"class.vcg::Point3.17", float }
%"class.std::vector.26" = type { %"struct.std::_Vector_base.27" }
%"struct.std::_Vector_base.27" = type { %"struct.std::_Vector_base<vcg::Point3<float>, std::allocator<vcg::Point3<float>>>::_Vector_impl" }
%"struct.std::_Vector_base<vcg::Point3<float>, std::allocator<vcg::Point3<float>>>::_Vector_impl" = type { %"struct.std::_Vector_base<vcg::Point3<float>, std::allocator<vcg::Point3<float>>>::_Vector_impl_data" }
%"struct.std::_Vector_base<vcg::Point3<float>, std::allocator<vcg::Point3<float>>>::_Vector_impl_data" = type { ptr, ptr, ptr }
%"class.vcg::Quaternion" = type { %"class.vcg::Point4.16" }
%"class.vcg::Point4.16" = type { [4 x float] }
%"class.std::__cxx11::list" = type { %"class.std::__cxx11::_List_base" }
%"class.std::__cxx11::_List_base" = type { %"struct.std::__cxx11::_List_base<vcg::Transform, std::allocator<vcg::Transform>>::_List_impl" }
%"struct.std::__cxx11::_List_base<vcg::Transform, std::allocator<vcg::Transform>>::_List_impl" = type { %"struct.std::__detail::_List_node_header" }
%"struct.std::__detail::_List_node_header" = type { %"struct.std::__detail::_List_node_base", i64 }
%"struct.std::__detail::_List_node_base" = type { ptr, ptr }
%"class.vcg::MeshTree" = type { %"class.std::map.34", %"class.std::vector.39", %"class.vcg::OccupancyGrid", ptr }
%"class.std::map.34" = type { %"class.std::_Rb_tree.35" }
%"class.std::_Rb_tree.35" = type { %"struct.std::_Rb_tree<int, std::pair<const int, vcg::MeshTree<MeshModel, float>::MeshNode *>, std::_Select1st<std::pair<const int, vcg::MeshTree<MeshModel, float>::MeshNode *>>, std::less<int>>::_Rb_tree_impl" }
%"struct.std::_Rb_tree<int, std::pair<const int, vcg::MeshTree<MeshModel, float>::MeshNode *>, std::_Select1st<std::pair<const int, vcg::MeshTree<MeshModel, float>::MeshNode *>>, std::less<int>>::_Rb_tree_impl" = type { %"struct.std::_Rb_tree_key_compare.23", %"struct.std::_Rb_tree_header" }
%"class.std::vector.39" = type { %"struct.std::_Vector_base.40" }
%"struct.std::_Vector_base.40" = type { %"struct.std::_Vector_base<vcg::AlignPair::Result, std::allocator<vcg::AlignPair::Result>>::_Vector_impl" }
%"struct.std::_Vector_base<vcg::AlignPair::Result, std::allocator<vcg::AlignPair::Result>>::_Vector_impl" = type { %"struct.std::_Vector_base<vcg::AlignPair::Result, std::allocator<vcg::AlignPair::Result>>::_Vector_impl_data" }
%"struct.std::_Vector_base<vcg::AlignPair::Result, std::allocator<vcg::AlignPair::Result>>::_Vector_impl_data" = type { ptr, ptr, ptr }
%"class.vcg::OccupancyGrid" = type { %"class.vcg::GridStaticObj", i32, i32, i32, %"class.std::vector.46", %"class.std::map.51" }
%"class.vcg::GridStaticObj" = type { %"class.vcg::BasicGrid", ptr }
%"class.vcg::BasicGrid" = type { %"class.vcg::Box3.44", %"class.vcg::Point3.17", %"class.vcg::Point3.45", %"class.vcg::Point3.17" }
%"class.vcg::Box3.44" = type { %"class.vcg::Point3.17", %"class.vcg::Point3.17" }
%"class.vcg::Point3.45" = type { [3 x i32] }
%"class.std::vector.46" = type { %"struct.std::_Vector_base.47" }
%"struct.std::_Vector_base.47" = type { %"struct.std::_Vector_base<vcg::OccupancyGrid<CMeshO, float>::OGArcInfo, std::allocator<vcg::OccupancyGrid<CMeshO, float>::OGArcInfo>>::_Vector_impl" }
%"struct.std::_Vector_base<vcg::OccupancyGrid<CMeshO, float>::OGArcInfo, std::allocator<vcg::OccupancyGrid<CMeshO, float>::OGArcInfo>>::_Vector_impl" = type { %"struct.std::_Vector_base<vcg::OccupancyGrid<CMeshO, float>::OGArcInfo, std::allocator<vcg::OccupancyGrid<CMeshO, float>::OGArcInfo>>::_Vector_impl_data" }
%"struct.std::_Vector_base<vcg::OccupancyGrid<CMeshO, float>::OGArcInfo, std::allocator<vcg::OccupancyGrid<CMeshO, float>::OGArcInfo>>::_Vector_impl_data" = type { ptr, ptr, ptr }
%"class.std::map.51" = type { %"class.std::_Rb_tree.52" }
%"class.std::_Rb_tree.52" = type { %"struct.std::_Rb_tree<int, std::pair<const int, vcg::OccupancyGrid<CMeshO, float>::OGMeshInfo>, std::_Select1st<std::pair<const int, vcg::OccupancyGrid<CMeshO, float>::OGMeshInfo>>, std::less<int>>::_Rb_tree_impl" }
%"struct.std::_Rb_tree<int, std::pair<const int, vcg::OccupancyGrid<CMeshO, float>::OGMeshInfo>, std::_Select1st<std::pair<const int, vcg::OccupancyGrid<CMeshO, float>::OGMeshInfo>>, std::less<int>>::_Rb_tree_impl" = type { %"struct.std::_Rb_tree_key_compare.23", %"struct.std::_Rb_tree_header" }
%"class.vcg::AlignPair::Param" = type { i32, i32, i32, double, double, i32, double, i32, double, double, double, i32, i8, double, double, i32, i32 }
%"class.vcg::MeshTree<MeshModel, float>::Param" = type { i32, float, float }
%class.QPaintDevice = type { ptr, i16, ptr }
%class.QWidget = type { %class.QObject, %class.QPaintDevice, ptr }
%class.QDialog = type { %class.QWidget }
%class.RichParameterList = type { %"class.std::__cxx11::list.2056" }
%"class.std::__cxx11::list.2056" = type { %"class.std::__cxx11::_List_base.2057" }
%"class.std::__cxx11::_List_base.2057" = type { %"struct.std::__cxx11::_List_base<RichParameter *, std::allocator<RichParameter *>>::_List_impl" }
%"struct.std::__cxx11::_List_base<RichParameter *, std::allocator<RichParameter *>>::_List_impl" = type { %"struct.std::__detail::_List_node_header" }
%class.RichParameterListDialog = type { %class.QDialog, ptr, ptr, %"class.std::map.2061" }
%"class.std::map.2061" = type { %"class.std::_Rb_tree.2062" }
%"class.std::_Rb_tree.2062" = type { %"struct.std::_Rb_tree<QString, std::pair<const QString, QCheckBox *>, std::_Select1st<std::pair<const QString, QCheckBox *>>, std::less<QString>>::_Rb_tree_impl" }
%"struct.std::_Rb_tree<QString, std::pair<const QString, QCheckBox *>, std::_Select1st<std::pair<const QString, QCheckBox *>>, std::less<QString>>::_Rb_tree_impl" = type { %"struct.std::_Rb_tree_key_compare.2066", %"struct.std::_Rb_tree_header" }
%"struct.std::_Rb_tree_key_compare.2066" = type { %"struct.std::less.2067" }
%"struct.std::less.2067" = type { i8 }
%class.QFlags.2069 = type { i32 }

@.str.42 = private unnamed_addr constant [29 x i8] c"Default Alignment Parameters\00", align 1

; Function Attrs: mustprogress nounwind uwtable
define linkonce_odr void @_ZN6QFlagsIN2Qt10WindowTypeEEC2ES1_(ptr noundef nonnull align 4 dereferenceable(4) %0, i32 noundef %1) unnamed_addr #4 comdat align 2 {
  %3 = alloca ptr, align 8
  %4 = alloca i32, align 4
  store ptr %0, ptr %3, align 8
  store i32 %1, ptr %4, align 4
  %5 = load ptr, ptr %3, align 8
  %6 = getelementptr inbounds %class.QFlags.2069, ptr %5, i32 0, i32 0
  %7 = load i32, ptr %4, align 4
  store i32 %7, ptr %6, align 4
  ret void
}

; Function Attrs: mustprogress uwtable
define linkonce_odr void @_ZN7QStringC2EPKc(ptr noundef nonnull align 8 dereferenceable(8) %0, ptr noundef %1) unnamed_addr #5 comdat align 2 {
  %3 = alloca ptr, align 8
  %4 = alloca ptr, align 8
  store ptr %0, ptr %3, align 8
  store ptr %1, ptr %4, align 8
  %5 = load ptr, ptr %3, align 8
  %6 = getelementptr inbounds %class.QString, ptr %5, i32 0, i32 0
  %7 = load ptr, ptr %4, align 8
  %8 = load ptr, ptr %4, align 8
  %9 = icmp ne ptr %8, null
  br i1 %9, label %10, label %14

10:                                               ; preds = %2
  %11 = load ptr, ptr %4, align 8
  %12 = call i64 @strlen(ptr noundef %11) #30
  %13 = trunc i64 %12 to i32
  br label %15

14:                                               ; preds = %2
  br label %15

15:                                               ; preds = %14, %10
  %16 = phi i32 [ %13, %10 ], [ -1, %14 ]
  %17 = call noundef ptr @_ZN7QString16fromAscii_helperEPKci(ptr noundef %7, i32 noundef %16)
  store ptr %17, ptr %6, align 8
  ret void
}

; Function Attrs: mustprogress uwtable
define void @_ZN15EditAlignPlugin13meshTreeParamEv(ptr noundef nonnull align 8 dereferenceable(1056) %0) #5 align 2 personality ptr @__gxx_personality_v0 {
  %2 = alloca ptr, align 8
  %3 = alloca %class.RichParameterList, align 8
  %4 = alloca ptr, align 8
  %5 = alloca i32, align 4
  %6 = alloca %class.RichParameterListDialog, align 8
  %7 = alloca %class.QString, align 8
  %8 = alloca %class.QFlags.2069, align 4
  %9 = alloca i32, align 4
  %10 = alloca i32, align 4
  store ptr %0, ptr %2, align 8
  %11 = load ptr, ptr %2, align 8
  call void @_ZN17RichParameterListC1Ev(ptr noundef nonnull align 8 dereferenceable(24) %3)
  %12 = getelementptr inbounds %class.EditAlignPlugin, ptr %11, i32 0, i32 10
  invoke void @_ZN14AlignParameter31MeshTreeParamToRichParameterSetERKN3vcg8MeshTreeI9MeshModelfE5ParamER17RichParameterList(ptr noundef nonnull align 4 dereferenceable(12) %12, ptr noundef nonnull align 8 dereferenceable(24) %3)
          to label %13 unwind label %27

13:                                               ; preds = %1
  %14 = getelementptr inbounds %class.EditAlignPlugin, ptr %11, i32 0, i32 4
  %15 = load ptr, ptr %14, align 8
  invoke void @_ZN7QStringC2EPKc(ptr noundef nonnull align 8 dereferenceable(8) %7, ptr noundef @.str.42)
          to label %16 unwind label %27

16:                                               ; preds = %13
  invoke void @_ZN23RichParameterListDialogC1EP7QWidgetR17RichParameterListRK7QString(ptr noundef nonnull align 8 dereferenceable(112) %6, ptr noundef %15, ptr noundef nonnull align 8 dereferenceable(24) %3, ptr noundef nonnull align 8 dereferenceable(8) %7)
          to label %17 unwind label %31

17:                                               ; preds = %16
  call void @_ZN7QStringD2Ev(ptr noundef nonnull align 8 dereferenceable(8) %7) #3
  call void @_ZN6QFlagsIN2Qt10WindowTypeEEC2ES1_(ptr noundef nonnull align 4 dereferenceable(4) %8, i32 noundef 3) #3
  %18 = getelementptr inbounds %class.QFlags.2069, ptr %8, i32 0, i32 0
  %19 = load i32, ptr %18, align 4
  invoke void @_ZN7QWidget14setWindowFlagsE6QFlagsIN2Qt10WindowTypeEE(ptr noundef nonnull align 8 dereferenceable(48) %6, i32 %19)
          to label %20 unwind label %35

20:                                               ; preds = %17
  invoke void @_ZN7QWidget17setWindowModalityEN2Qt14WindowModalityE(ptr noundef nonnull align 8 dereferenceable(48) %6, i32 noundef 1)
          to label %21 unwind label %35

21:                                               ; preds = %20
  %22 = invoke noundef i32 @_ZN7QDialog4execEv(ptr noundef nonnull align 8 dereferenceable(48) %6)
          to label %23 unwind label %35

23:                                               ; preds = %21
  store i32 %22, ptr %9, align 4
  %24 = load i32, ptr %9, align 4
  %25 = icmp ne i32 %24, 1
  br i1 %25, label %26, label %39

26:                                               ; preds = %23
  store i32 1, ptr %10, align 4
  br label %42

27:                                               ; preds = %13, %1
  %28 = landingpad { ptr, i32 }
          cleanup
  %29 = extractvalue { ptr, i32 } %28, 0
  store ptr %29, ptr %4, align 8
  %30 = extractvalue { ptr, i32 } %28, 1
  store i32 %30, ptr %5, align 4
  br label %45

31:                                               ; preds = %16
  %32 = landingpad { ptr, i32 }
          cleanup
  %33 = extractvalue { ptr, i32 } %32, 0
  store ptr %33, ptr %4, align 8
  %34 = extractvalue { ptr, i32 } %32, 1
  store i32 %34, ptr %5, align 4
  call void @_ZN7QStringD2Ev(ptr noundef nonnull align 8 dereferenceable(8) %7) #3
  br label %45

35:                                               ; preds = %39, %21, %20, %17
  %36 = landingpad { ptr, i32 }
          cleanup
  %37 = extractvalue { ptr, i32 } %36, 0
  store ptr %37, ptr %4, align 8
  %38 = extractvalue { ptr, i32 } %36, 1
  store i32 %38, ptr %5, align 4
  call void @_ZN23RichParameterListDialogD1Ev(ptr noundef nonnull align 8 dereferenceable(112) %6) #3
  br label %45

39:                                               ; preds = %23
  %40 = getelementptr inbounds %class.EditAlignPlugin, ptr %11, i32 0, i32 10
  invoke void @_ZN14AlignParameter31RichParameterSetToMeshTreeParamERK17RichParameterListRN3vcg8MeshTreeI9MeshModelfE5ParamE(ptr noundef nonnull align 8 dereferenceable(24) %3, ptr noundef nonnull align 4 dereferenceable(12) %40)
          to label %41 unwind label %35

41:                                               ; preds = %39
  store i32 0, ptr %10, align 4
  br label %42

42:                                               ; preds = %41, %26
  call void @_ZN23RichParameterListDialogD1Ev(ptr noundef nonnull align 8 dereferenceable(112) %6) #3
  call void @_ZN17RichParameterListD1Ev(ptr noundef nonnull align 8 dereferenceable(24) %3) #3
  %43 = load i32, ptr %10, align 4
  switch i32 %43, label %51 [
    i32 0, label %44
    i32 1, label %44
  ]

44:                                               ; preds = %42, %42
  ret void

45:                                               ; preds = %35, %31, %27
  call void @_ZN17RichParameterListD1Ev(ptr noundef nonnull align 8 dereferenceable(24) %3) #3
  br label %46

46:                                               ; preds = %45
  %47 = load ptr, ptr %4, align 8
  %48 = load i32, ptr %5, align 4
  %49 = insertvalue { ptr, i32 } poison, ptr %47, 0
  %50 = insertvalue { ptr, i32 } %49, i32 %48, 1
  resume { ptr, i32 } %50

51:                                               ; preds = %42
  unreachable
}