; Function Attrs: mustprogress uwtable
define void @_ZN15EditAlignPlugin13meshTreeParamEv(ptr noundef nonnull align 8 dereferenceable(1056) %0) local_unnamed_addr #9 align 2 personality ptr @__gxx_personality_v0 {
  %2 = alloca %class.RichParameterList, align 8
  %3 = alloca %class.RichParameterListDialog, align 8
  %4 = alloca %class.QString, align 8
  call void @_ZN17RichParameterListC1Ev(ptr noundef nonnull align 8 dereferenceable(24) %2)
  %5 = getelementptr inbounds i8, ptr %0, i64 1032
  invoke void @_ZN14AlignParameter31MeshTreeParamToRichParameterSetERKN3vcg8MeshTreeI9MeshModelfE5ParamER17RichParameterList(ptr noundef nonnull align 4 dereferenceable(12) %5, ptr noundef nonnull align 8 dereferenceable(24) %2)
          to label %6 unwind label %20

6:                                                ; preds = %1
  %7 = getelementptr inbounds i8, ptr %0, i64 56
  %8 = load ptr, ptr %7, align 8
  %9 = invoke noundef ptr @_ZN7QString16fromAscii_helperEPKci(ptr noundef nonnull @.str.42, i32 noundef 28)
          to label %10 unwind label %20

10:                                               ; preds = %6
  store ptr %9, ptr %4, align 8
  invoke void @_ZN23RichParameterListDialogC1EP7QWidgetR17RichParameterListRK7QString(ptr noundef nonnull align 8 dereferenceable(112) %3, ptr noundef %8, ptr noundef nonnull align 8 dereferenceable(24) %2, ptr noundef nonnull align 8 dereferenceable(8) %4)
          to label %11 unwind label %22

11:                                               ; preds = %10
  %12 = load ptr, ptr %4, align 8
  %13 = load atomic i32, ptr %12 monotonic, align 4
  switch i32 %13, label %_ZN9QtPrivate8RefCount5derefEv.exit.i [
    i32 0, label %_ZN9QtPrivate8RefCount5derefEv.exit.thread2.i
    i32 -1, label %_ZN7QStringD2Ev.exit
  ]

_ZN9QtPrivate8RefCount5derefEv.exit.i:            ; preds = %11
  %14 = atomicrmw sub ptr %12, i32 1 seq_cst, align 4
  %.not.i = icmp eq i32 %14, 1
  br i1 %.not.i, label %_ZN9QtPrivate8RefCount5derefEv.exit._ZN9QtPrivate8RefCount5derefEv.exit.thread2_crit_edge.i, label %_ZN7QStringD2Ev.exit

_ZN9QtPrivate8RefCount5derefEv.exit._ZN9QtPrivate8RefCount5derefEv.exit.thread2_crit_edge.i: ; preds = %_ZN9QtPrivate8RefCount5derefEv.exit.i
  %.pre.i = load ptr, ptr %4, align 8
  br label %_ZN9QtPrivate8RefCount5derefEv.exit.thread2.i

_ZN9QtPrivate8RefCount5derefEv.exit.thread2.i:    ; preds = %_ZN9QtPrivate8RefCount5derefEv.exit._ZN9QtPrivate8RefCount5derefEv.exit.thread2_crit_edge.i, %11
  %15 = phi ptr [ %.pre.i, %_ZN9QtPrivate8RefCount5derefEv.exit._ZN9QtPrivate8RefCount5derefEv.exit.thread2_crit_edge.i ], [ %12, %11 ]
  call void @_ZN10QArrayData10deallocateEPS_mm(ptr noundef %15, i64 noundef 2, i64 noundef 8) #23
  br label %_ZN7QStringD2Ev.exit

_ZN7QStringD2Ev.exit:                             ; preds = %11, %_ZN9QtPrivate8RefCount5derefEv.exit.i, %_ZN9QtPrivate8RefCount5derefEv.exit.thread2.i
  invoke void @_ZN7QWidget14setWindowFlagsE6QFlagsIN2Qt10WindowTypeEE(ptr noundef nonnull align 8 dereferenceable(48) %3, i32 3)
          to label %16 unwind label %24

16:                                               ; preds = %_ZN7QStringD2Ev.exit
  invoke void @_ZN7QWidget17setWindowModalityEN2Qt14WindowModalityE(ptr noundef nonnull align 8 dereferenceable(48) %3, i32 noundef 1)
          to label %17 unwind label %24

17:                                               ; preds = %16
  %18 = invoke noundef i32 @_ZN7QDialog4execEv(ptr noundef nonnull align 8 dereferenceable(48) %3)
          to label %19 unwind label %24

19:                                               ; preds = %17
  %.not = icmp eq i32 %18, 1
  br i1 %.not, label %26, label %27

20:                                               ; preds = %6, %1
  %21 = landingpad { ptr, i32 }
          cleanup
  br label %28

22:                                               ; preds = %10
  %23 = landingpad { ptr, i32 }
          cleanup
  call void @_ZN7QStringD2Ev(ptr noundef nonnull align 8 dereferenceable(8) %4) #23
  br label %28

24:                                               ; preds = %26, %17, %16, %_ZN7QStringD2Ev.exit
  %25 = landingpad { ptr, i32 }
          cleanup
  call void @_ZN23RichParameterListDialogD1Ev(ptr noundef nonnull align 8 dereferenceable(112) %3) #23
  br label %28

26:                                               ; preds = %19
  invoke void @_ZN14AlignParameter31RichParameterSetToMeshTreeParamERK17RichParameterListRN3vcg8MeshTreeI9MeshModelfE5ParamE(ptr noundef nonnull align 8 dereferenceable(24) %2, ptr noundef nonnull align 4 dereferenceable(12) %5)
          to label %27 unwind label %24

27:                                               ; preds = %26, %19
  call void @_ZN23RichParameterListDialogD1Ev(ptr noundef nonnull align 8 dereferenceable(112) %3) #23
  call void @_ZN17RichParameterListD1Ev(ptr noundef nonnull align 8 dereferenceable(24) %2) #23
  ret void

28:                                               ; preds = %24, %22, %20
  %.pn = phi { ptr, i32 } [ %25, %24 ], [ %23, %22 ], [ %21, %20 ]
  call void @_ZN17RichParameterListD1Ev(ptr noundef nonnull align 8 dereferenceable(24) %2) #23
  resume { ptr, i32 } %.pn
}